(dp0
Vfullscreen_mode
p1
I0
sVorientation
p2
Vhorizontal
p3
sVfocus
p4
(lp5
I26114256
aI26108624
aI26106912
asVurgent
p6
I00
sVlast_split_layout
p7
Vsplith
p8
sVfloating
p9
Vauto_off
p10
sVborder
p11
Vpixel
p12
sVid
p13
I26104336
sVcurrent_border_width
p14
I-1
sVlayout
p15
Vsplith
p16
sVpercent
p17
F1.0
sVworkspace_layout
p18
Vdefault
p19
sVwindow
p20
NsVnodes
p21
(lp22
(dp23
Vfullscreen_mode
p24
I0
sVorientation
p25
Vnone
p26
sVfocus
p27
(lp28
I26107344
asVurgent
p29
I00
sVlast_split_layout
p30
Vsplith
p31
sVfloating
p32
Vauto_off
p33
sVborder
p34
Vpixel
p35
sVid
p36
I26106912
sVcurrent_border_width
p37
I-1
sVlayout
p38
Voutput
p39
sVpercent
p40
F0.3333333333333333
sVworkspace_layout
p41
Vdefault
p42
sVwindow
p43
NsVnodes
p44
(lp45
(dp46
Vfullscreen_mode
p47
I0
sVorientation
p48
Vhorizontal
p49
sVfocus
p50
(lp51
I26107776
asVurgent
p52
I00
sVlast_split_layout
p53
Vsplith
p54
sVfloating
p55
Vauto_off
p56
sVborder
p57
Vpixel
p58
sVid
p59
I26107344
sVcurrent_border_width
p60
I-1
sVlayout
p61
Vsplith
p62
sVpercent
p63
F1.0
sVworkspace_layout
p64
Vdefault
p65
sVwindow
p66
NsVnodes
p67
(lp68
(dp69
Vfullscreen_mode
p70
I1
sVorientation
p71
Vnone
p72
sVfocus
p73
(lp74
sVurgent
p75
I00
sVnum
p76
I-1
sVlast_split_layout
p77
Vsplith
p78
sVfloating
p79
Vauto_off
p80
sVborder
p81
Vpixel
p82
sVid
p83
I26107776
sVcurrent_border_width
p84
I-1
sVlayout
p85
Vsplith
p86
sVpercent
p87
F1.0
sVworkspace_layout
p88
Vdefault
p89
sVwindow
p90
NsVnodes
p91
(lp92
sVtype
p93
Vworkspace
p94
sVswallows
p95
(lp96
sVfocused
p97
I00
sVscratchpad_state
p98
Vnone
p99
sVrect
p100
(dp101
Vy
p102
I0
sVx
p103
I0
sVheight
p104
I0
sVwidth
p105
I0
ssVwindow_rect
p106
(dp107
g102
I0
sg103
I0
sVheight
p108
I0
sVwidth
p109
I0
ssVname
p110
V__i3_scratch
p111
sVgeometry
p112
(dp113
g102
I0
sg103
I0
sVheight
p114
I0
sVwidth
p115
I0
ssVfloating_nodes
p116
(lp117
sasVtype
p118
Vcon
p119
sVswallows
p120
(lp121
sVfocused
p122
I00
sVscratchpad_state
p123
Vnone
p124
sVrect
p125
(dp126
g102
I0
sg103
I0
sVheight
p127
I0
sVwidth
p128
I0
ssVwindow_rect
p129
(dp130
g102
I0
sg103
I0
sVheight
p131
I0
sVwidth
p132
I0
ssVname
p133
Vcontent
p134
sVgeometry
p135
(dp136
g102
I0
sg103
I0
sVheight
p137
I0
sVwidth
p138
I0
ssVfloating_nodes
p139
(lp140
sasVtype
p141
Voutput
p142
sVswallows
p143
(lp144
sVfocused
p145
I00
sVscratchpad_state
p146
Vnone
p147
sVrect
p148
(dp149
g102
I0
sg103
I0
sVheight
p150
I34560
sVwidth
p151
I15360
ssVwindow_rect
p152
(dp153
g102
I0
sg103
I0
sVheight
p154
I0
sVwidth
p155
I0
ssVname
p156
V__i3
p157
sVgeometry
p158
(dp159
g102
I0
sg103
I0
sVheight
p160
I0
sVwidth
p161
I0
ssVfloating_nodes
p162
(lp163
sa(dp164
Vfullscreen_mode
p165
I0
sVorientation
p166
Vnone
p167
sVfocus
p168
(lp169
I26109616
aI26109024
aI26113424
asVurgent
p170
I00
sVlast_split_layout
p171
Vsplith
p172
sVfloating
p173
Vauto_off
p174
sVborder
p175
Vpixel
p176
sVid
p177
I26108624
sVcurrent_border_width
p178
I-1
sVlayout
p179
Voutput
p180
sVpercent
p181
F0.3333333333333333
sVworkspace_layout
p182
Vdefault
p183
sVwindow
p184
NsVnodes
p185
(lp186
(dp187
Vfullscreen_mode
p188
I0
sVorientation
p189
Vnone
p190
sVfocus
p191
(lp192
I26136896
asVurgent
p193
I00
sVlast_split_layout
p194
Vsplith
p195
sVfloating
p196
Vauto_off
p197
sVborder
p198
Vpixel
p199
sVid
p200
I26109024
sVcurrent_border_width
p201
I-1
sVlayout
p202
Vdockarea
p203
sVpercent
p204
F0.3333333333333333
sVworkspace_layout
p205
Vdefault
p206
sVwindow
p207
NsVnodes
p208
(lp209
(dp210
Vwindow_properties
p211
(dp212
Vinstance
p213
Vi3bar
p214
sVclass
p215
Vi3bar
p216
sVtitle
p217
Vi3bar for output LVDS1
p218
ssVfullscreen_mode
p219
I0
sVorientation
p220
Vnone
p221
sVprocess
p222
S'i3bar'
p223
sVfocus
p224
(lp225
sVurgent
p226
I00
sVlast_split_layout
p227
Vsplith
p228
sVfloating
p229
Vauto_off
p230
sVborder
p231
Vpixel
p232
sVid
p233
I26136896
sVcurrent_border_width
p234
I-1
sVlayout
p235
Vsplith
p236
sVpercent
p237
F1.0
sVworkspace_layout
p238
Vdefault
p239
sVwindow
p240
I14680075
sVnodes
p241
(lp242
sVtype
p243
Vcon
p244
sVswallows
p245
(lp246
sVfocused
p247
I00
sVscratchpad_state
p248
Vnone
p249
sVrect
p250
(dp251
g102
I0
sg103
I1920
sVheight
p252
I19
sVwidth
p253
I1024
ssVwindow_rect
p254
(dp255
g102
I0
sg103
I0
sVheight
p256
I19
sVwidth
p257
I1024
ssVname
p258
Vi3bar for output LVDS1
p259
sVgeometry
p260
(dp261
g102
I749
sg103
I1920
sVheight
p262
I19
sVwidth
p263
I1024
ssVfloating_nodes
p264
(lp265
sasVtype
p266
Vdockarea
p267
sVswallows
p268
(lp269
(dp270
Vdock
p271
I2
sVinsert_where
p272
I2
sasVfocused
p273
I00
sVscratchpad_state
p274
Vnone
p275
sVrect
p276
(dp277
g102
I0
sg103
I1920
sVheight
p278
I19
sVwidth
p279
I1024
ssVwindow_rect
p280
(dp281
g102
I0
sg103
I0
sVheight
p282
I0
sVwidth
p283
I0
ssVname
p284
Vtopdock
p285
sVgeometry
p286
(dp287
g102
I0
sg103
I0
sVheight
p288
I0
sVwidth
p289
I0
ssVfloating_nodes
p290
(lp291
sa(dp292
Vfullscreen_mode
p293
I0
sVorientation
p294
Vhorizontal
p295
sVfocus
p296
(lp297
I26110128
aI26116096
asVurgent
p298
I00
sVlast_split_layout
p299
Vsplith
p300
sVfloating
p301
Vauto_off
p302
sVborder
p303
Vpixel
p304
sVid
p305
I26109616
sVcurrent_border_width
p306
I-1
sVlayout
p307
Vsplith
p308
sVpercent
p309
F0.3333333333333333
sVworkspace_layout
p310
Vdefault
p311
sVwindow
p312
NsVnodes
p313
(lp314
(dp315
Vfullscreen_mode
p316
I1
sVorientation
p317
Vhorizontal
p318
sVfocus
p319
(lp320
I26110560
aI26112528
asVurgent
p321
I00
sVnum
p322
I4
sVlast_split_layout
p323
Vsplith
p324
sVfloating
p325
Vauto_off
p326
sVborder
p327
Vpixel
p328
sVid
p329
I26110128
sVcurrent_border_width
p330
I-1
sVlayout
p331
Vsplith
p332
sVpercent
p333
F0.5
sVworkspace_layout
p334
Vdefault
p335
sVwindow
p336
NsVnodes
p337
(lp338
(dp339
Vfullscreen_mode
p340
I0
sVorientation
p341
Vvertical
p342
sVfocus
p343
(lp344
I26111584
aI26110992
asVurgent
p345
I00
sVlast_split_layout
p346
Vsplitv
p347
sVfloating
p348
Vauto_off
p349
sVborder
p350
Vpixel
p351
sVid
p352
I26110560
sVcurrent_border_width
p353
I-1
sVlayout
p354
Vsplitv
p355
sVpercent
p356
F0.5
sVworkspace_layout
p357
Vdefault
p358
sVwindow
p359
NsVnodes
p360
(lp361
(dp362
Vwindow_properties
p363
(dp364
Vinstance
p365
Vxterm
p366
sVclass
p367
VXTerm
p368
sVtitle
p369
Vnode@VitalSigns
p370
ssVfullscreen_mode
p371
I0
sVorientation
p372
Vnone
p373
sg222
S'xterm'
p374
sVfocus
p375
(lp376
sVurgent
p377
I00
sVlast_split_layout
p378
Vsplith
p379
sVfloating
p380
Vauto_off
p381
sVborder
p382
Vpixel
p383
sVid
p384
I26110992
sVcurrent_border_width
p385
I-1
sVlayout
p386
Vsplith
p387
sVpercent
p388
F0.5
sVworkspace_layout
p389
Vdefault
p390
sVwindow
p391
I31457314
sVnodes
p392
(lp393
sVtype
p394
Vcon
p395
sVswallows
p396
(lp397
sVfocused
p398
I00
sVscratchpad_state
p399
Vnone
p400
sVrect
p401
(dp402
g102
I19
sg103
I1920
sVheight
p403
I375
sVwidth
p404
I512
ssVwindow_rect
p405
(dp406
g102
I1
sg103
I0
sVheight
p407
I371
sVwidth
p408
I509
ssVname
p409
Vnode@VitalSigns
p410
sVgeometry
p411
(dp412
g102
I0
sg103
I0
sVheight
p413
I412
sVwidth
p414
I644
ssVfloating_nodes
p415
(lp416
sa(dp417
Vwindow_properties
p418
(dp419
Vinstance
p420
Vping.pm2.io
p421
sVwindow_role
p422
Vpop-up
p423
sVclass
p424
VChromium-browser
p425
sVtitle
p426
VPM2 realtime download
p427
ssVfullscreen_mode
p428
I0
sVorientation
p429
Vnone
p430
sg222
S'chromium-browser'
p431
sVfocus
p432
(lp433
sVurgent
p434
I00
sVlast_split_layout
p435
Vsplith
p436
sVfloating
p437
Vauto_off
p438
sVborder
p439
Vpixel
p440
sVid
p441
I26111584
sVcurrent_border_width
p442
I-1
sVlayout
p443
Vsplith
p444
sVpercent
p445
F0.5
sVworkspace_layout
p446
Vdefault
p447
sVwindow
p448
I27263751
sVnodes
p449
(lp450
sVtype
p451
Vcon
p452
sVswallows
p453
(lp454
sVfocused
p455
I00
sVscratchpad_state
p456
Vnone
p457
sVrect
p458
(dp459
g102
I394
sg103
I1920
sVheight
p460
I374
sVwidth
p461
I512
ssVwindow_rect
p462
(dp463
g102
I1
sg103
I0
sVheight
p464
I372
sVwidth
p465
I511
ssVname
p466
VPM2 realtime download
p467
sVgeometry
p468
(dp469
g102
I0
sg103
I0
sVheight
p470
I1059
sVwidth
p471
I1920
ssVfloating_nodes
p472
(lp473
sasVtype
p474
Vcon
p475
sVswallows
p476
(lp477
sVfocused
p478
I00
sVscratchpad_state
p479
Vnone
p480
sVrect
p481
(dp482
g102
I19
sg103
I1920
sVheight
p483
I749
sVwidth
p484
I512
ssVwindow_rect
p485
(dp486
g102
I0
sg103
I0
sVheight
p487
I0
sVwidth
p488
I0
ssVname
p489
V#00ffff
p490
sVgeometry
p491
(dp492
g102
I0
sg103
I0
sVheight
p493
I0
sVwidth
p494
I0
ssVfloating_nodes
p495
(lp496
sa(dp497
Vwindow_properties
p498
(dp499
Vinstance
p500
Vxterm
p501
sVclass
p502
VXTerm
p503
sVtitle
p504
Vroot@pm2-test-box: ~/pm2
p505
ssVfullscreen_mode
p506
I0
sVorientation
p507
Vnone
p508
sg222
S'xterm'
p509
sVfocus
p510
(lp511
sVurgent
p512
I00
sVlast_split_layout
p513
Vsplith
p514
sVfloating
p515
Vauto_off
p516
sVborder
p517
Vpixel
p518
sVid
p519
I26112528
sVcurrent_border_width
p520
I-1
sVlayout
p521
Vsplith
p522
sVpercent
p523
F0.5
sVworkspace_layout
p524
Vdefault
p525
sVwindow
p526
I33554466
sVnodes
p527
(lp528
sVtype
p529
Vcon
p530
sVswallows
p531
(lp532
sVfocused
p533
I00
sVscratchpad_state
p534
Vnone
p535
sVrect
p536
(dp537
g102
I19
sg103
I2432
sVheight
p538
I749
sVwidth
p539
I512
ssVwindow_rect
p540
(dp541
g102
I1
sg103
I1
sVheight
p542
I745
sVwidth
p543
I509
ssVname
p544
Vroot@pm2-test-box: ~/pm2
p545
sVgeometry
p546
(dp547
g102
I0
sg103
I0
sVheight
p548
I412
sVwidth
p549
I644
ssVfloating_nodes
p550
(lp551
sasVtype
p552
Vworkspace
p553
sVswallows
p554
(lp555
sVfocused
p556
I00
sVscratchpad_state
p557
Vnone
p558
sVrect
p559
(dp560
g102
I19
sg103
I1920
sVheight
p561
I749
sVwidth
p562
I1024
ssVwindow_rect
p563
(dp564
g102
I0
sg103
I0
sVheight
p565
I0
sVwidth
p566
I0
ssVname
p567
V4
p568
sVgeometry
p569
(dp570
g102
I0
sg103
I0
sVheight
p571
I0
sVwidth
p572
I0
ssVfloating_nodes
p573
(lp574
sa(dp575
Vfullscreen_mode
p576
I0
sVorientation
p577
Vhorizontal
p578
sVfocus
p579
(lp580
I26013376
asVurgent
p581
I00
sVnum
p582
I5
sVlast_split_layout
p583
Vsplith
p584
sVfloating
p585
Vauto_off
p586
sVborder
p587
Vpixel
p588
sVid
p589
I26116096
sVcurrent_border_width
p590
I-1
sVlayout
p591
Vsplith
p592
sVpercent
p593
F0.5
sVworkspace_layout
p594
Vdefault
p595
sVwindow
p596
NsVnodes
p597
(lp598
(dp599
Vwindow_properties
p600
(dp601
Vinstance
p602
Vxterm
p603
sVclass
p604
VXTerm
p605
sVtitle
p606
Vroot@pm2-test-centos:~/pm2
p607
ssVfullscreen_mode
p608
I0
sVorientation
p609
Vnone
p610
sg222
S'xterm'
p611
sVfocus
p612
(lp613
sVurgent
p614
I00
sVlast_split_layout
p615
Vsplith
p616
sVfloating
p617
Vauto_off
p618
sVborder
p619
Vpixel
p620
sVid
p621
I26013376
sVcurrent_border_width
p622
I-1
sVlayout
p623
Vsplith
p624
sVpercent
p625
F1.0
sVworkspace_layout
p626
Vdefault
p627
sVwindow
p628
I25165858
sVnodes
p629
(lp630
sVtype
p631
Vcon
p632
sVswallows
p633
(lp634
sVfocused
p635
I00
sVscratchpad_state
p636
Vnone
p637
sVrect
p638
(dp639
g102
I19
sg103
I1920
sVheight
p640
I749
sVwidth
p641
I1024
ssVwindow_rect
p642
(dp643
g102
I1
sg103
I0
sVheight
p644
I745
sVwidth
p645
I1022
ssVname
p646
Vroot@pm2-test-centos:~/pm2
p647
sVgeometry
p648
(dp649
g102
I0
sg103
I0
sVheight
p650
I412
sVwidth
p651
I644
ssVfloating_nodes
p652
(lp653
sasVtype
p654
Vworkspace
p655
sVswallows
p656
(lp657
sVfocused
p658
I00
sVscratchpad_state
p659
Vnone
p660
sVrect
p661
(dp662
g102
I19
sg103
I1920
sVheight
p663
I749
sVwidth
p664
I1024
ssVwindow_rect
p665
(dp666
g102
I0
sg103
I0
sVheight
p667
I0
sVwidth
p668
I0
ssVname
p669
V5
p670
sVgeometry
p671
(dp672
g102
I0
sg103
I0
sVheight
p673
I0
sVwidth
p674
I0
ssVfloating_nodes
p675
(lp676
sasVtype
p677
Vcon
p678
sVswallows
p679
(lp680
sVfocused
p681
I00
sVscratchpad_state
p682
Vnone
p683
sVrect
p684
(dp685
g102
I19
sg103
I1920
sVheight
p686
I749
sVwidth
p687
I1024
ssVwindow_rect
p688
(dp689
g102
I0
sg103
I0
sVheight
p690
I0
sVwidth
p691
I0
ssVname
p692
Vcontent
p693
sVgeometry
p694
(dp695
g102
I0
sg103
I0
sVheight
p696
I0
sVwidth
p697
I0
ssVfloating_nodes
p698
(lp699
sa(dp700
Vfullscreen_mode
p701
I0
sVorientation
p702
Vnone
p703
sVfocus
p704
(lp705
sVurgent
p706
I00
sVlast_split_layout
p707
Vsplith
p708
sVfloating
p709
Vauto_off
p710
sVborder
p711
Vpixel
p712
sVid
p713
I26113424
sVcurrent_border_width
p714
I-1
sVlayout
p715
Vdockarea
p716
sVpercent
p717
F0.3333333333333333
sVworkspace_layout
p718
Vdefault
p719
sVwindow
p720
NsVnodes
p721
(lp722
sVtype
p723
Vdockarea
p724
sVswallows
p725
(lp726
(dp727
Vdock
p728
I3
sVinsert_where
p729
I2
sasVfocused
p730
I00
sVscratchpad_state
p731
Vnone
p732
sVrect
p733
(dp734
g102
I768
sg103
I1920
sVheight
p735
I0
sVwidth
p736
I1024
ssVwindow_rect
p737
(dp738
g102
I0
sg103
I0
sVheight
p739
I0
sVwidth
p740
I0
ssVname
p741
Vbottomdock
p742
sVgeometry
p743
(dp744
g102
I0
sg103
I0
sVheight
p745
I0
sVwidth
p746
I0
ssVfloating_nodes
p747
(lp748
sasVtype
p749
Voutput
p750
sVswallows
p751
(lp752
sVfocused
p753
I00
sVscratchpad_state
p754
Vnone
p755
sVrect
p756
(dp757
g102
I0
sg103
I1920
sVheight
p758
I768
sVwidth
p759
I1024
ssVwindow_rect
p760
(dp761
g102
I0
sg103
I0
sVheight
p762
I0
sVwidth
p763
I0
ssVname
p764
VLVDS1
p765
sVgeometry
p766
(dp767
g102
I0
sg103
I0
sVheight
p768
I0
sVwidth
p769
I0
ssVfloating_nodes
p770
(lp771
sa(dp772
Vfullscreen_mode
p773
I0
sVorientation
p774
Vnone
p775
sVfocus
p776
(lp777
I26115184
aI26114624
aI26121664
asVurgent
p778
I00
sVlast_split_layout
p779
Vsplith
p780
sVfloating
p781
Vauto_off
p782
sVborder
p783
Vpixel
p784
sVid
p785
I26114256
sVcurrent_border_width
p786
I-1
sVlayout
p787
Voutput
p788
sVpercent
p789
F0.3333333333333333
sVworkspace_layout
p790
Vdefault
p791
sVwindow
p792
NsVnodes
p793
(lp794
(dp795
Vfullscreen_mode
p796
I0
sVorientation
p797
Vnone
p798
sVfocus
p799
(lp800
I26130656
asVurgent
p801
I00
sVlast_split_layout
p802
Vsplith
p803
sVfloating
p804
Vauto_off
p805
sVborder
p806
Vpixel
p807
sVid
p808
I26114624
sVcurrent_border_width
p809
I-1
sVlayout
p810
Vdockarea
p811
sVpercent
p812
F0.3333333333333333
sVworkspace_layout
p813
Vdefault
p814
sVwindow
p815
NsVnodes
p816
(lp817
(dp818
Vwindow_properties
p819
(dp820
Vinstance
p821
Vi3bar
p822
sVclass
p823
Vi3bar
p824
sVtitle
p825
Vi3bar for output VGA1
p826
ssVfullscreen_mode
p827
I0
sVorientation
p828
Vnone
p829
sg222
S'i3bar'
p830
sVfocus
p831
(lp832
sVurgent
p833
I00
sVlast_split_layout
p834
Vsplith
p835
sVfloating
p836
Vauto_off
p837
sVborder
p838
Vpixel
p839
sVid
p840
I26130656
sVcurrent_border_width
p841
I-1
sVlayout
p842
Vsplith
p843
sVpercent
p844
F1.0
sVworkspace_layout
p845
Vdefault
p846
sVwindow
p847
I14680071
sVnodes
p848
(lp849
sVtype
p850
Vcon
p851
sVswallows
p852
(lp853
sVfocused
p854
I00
sVscratchpad_state
p855
Vnone
p856
sVrect
p857
(dp858
g102
I0
sg103
I0
sVheight
p859
I19
sVwidth
p860
I1920
ssVwindow_rect
p861
(dp862
g102
I0
sg103
I0
sVheight
p863
I19
sVwidth
p864
I1920
ssVname
p865
Vi3bar for output VGA1
p866
sVgeometry
p867
(dp868
g102
I1061
sg103
I0
sVheight
p869
I19
sVwidth
p870
I1920
ssVfloating_nodes
p871
(lp872
sasVtype
p873
Vdockarea
p874
sVswallows
p875
(lp876
(dp877
Vdock
p878
I2
sVinsert_where
p879
I2
sasVfocused
p880
I00
sVscratchpad_state
p881
Vnone
p882
sVrect
p883
(dp884
g102
I0
sg103
I0
sVheight
p885
I19
sVwidth
p886
I1920
ssVwindow_rect
p887
(dp888
g102
I0
sg103
I0
sVheight
p889
I0
sVwidth
p890
I0
ssVname
p891
Vtopdock
p892
sVgeometry
p893
(dp894
g102
I0
sg103
I0
sVheight
p895
I0
sVwidth
p896
I0
ssVfloating_nodes
p897
(lp898
sa(dp899
Vfullscreen_mode
p900
I0
sVorientation
p901
Vhorizontal
p902
sVfocus
p903
(lp904
I26116960
aI26120272
asVurgent
p905
I00
sVlast_split_layout
p906
Vsplith
p907
sVfloating
p908
Vauto_off
p909
sVborder
p910
Vpixel
p911
sVid
p912
I26115184
sVcurrent_border_width
p913
I-1
sVlayout
p914
Vsplith
p915
sVpercent
p916
F0.3333333333333333
sVworkspace_layout
p917
Vdefault
p918
sVwindow
p919
NsVnodes
p920
(lp921
(dp922
Vfullscreen_mode
p923
I1
sVorientation
p924
Vhorizontal
p925
sVfocus
p926
(lp927
I26117360
asVurgent
p928
I00
sVnum
p929
I2
sVlast_split_layout
p930
Vsplith
p931
sVfloating
p932
Vauto_off
p933
sVborder
p934
Vpixel
p935
sVid
p936
I26116960
sVcurrent_border_width
p937
I-1
sVlayout
p938
Vsplith
p939
sVpercent
p940
F0.5
sVworkspace_layout
p941
Vdefault
p942
sVwindow
p943
NsVnodes
p944
(lp945
(dp946
Vfullscreen_mode
p947
I0
sVorientation
p948
Vhorizontal
p949
sVfocus
p950
(lp951
I26169248
aI26117792
asVurgent
p952
I00
sVlast_split_layout
p953
Vsplith
p954
sVfloating
p955
Vauto_off
p956
sVborder
p957
Vpixel
p958
sVid
p959
I26117360
sVcurrent_border_width
p960
I-1
sVlayout
p961
Vsplith
p962
sVpercent
p963
F1.0
sVworkspace_layout
p964
Vdefault
p965
sVwindow
p966
NsVnodes
p967
(lp968
(dp969
Vwindow_properties
p970
(dp971
Vinstance
p972
VGoogle-chrome
p973
sVwindow_role
p974
Vbrowser
p975
sVclass
p976
VGoogle-chrome
p977
sVtitle
p978
Vjoepestro/i3session - Google Chrome
p979
ssVfullscreen_mode
p980
I0
sVorientation
p981
Vnone
p982
sg222
S'google-chrome'
p983
sVfocus
p984
(lp985
sVurgent
p986
I00
sVlast_split_layout
p987
Vsplith
p988
sVfloating
p989
Vauto_off
p990
sVborder
p991
Vpixel
p992
sVid
p993
I26117792
sVcurrent_border_width
p994
I-1
sVlayout
p995
Vsplith
p996
sVpercent
p997
F0.5
sVworkspace_layout
p998
Vdefault
p999
sVwindow
p1000
I18874445
sVnodes
p1001
(lp1002
sVtype
p1003
Vcon
p1004
sVswallows
p1005
(lp1006
sVfocused
p1007
I00
sVscratchpad_state
p1008
Vnone
p1009
sVrect
p1010
(dp1011
g102
I19
sg103
I0
sVheight
p1012
I1061
sVwidth
p1013
I960
ssVwindow_rect
p1014
(dp1015
g102
I1
sg103
I0
sVheight
p1016
I1059
sVwidth
p1017
I959
ssVname
p1018
Vjoepestro/i3session - Google Chrome
p1019
sVgeometry
p1020
(dp1021
g102
I10
sg103
I10
sVheight
p1022
I768
sVwidth
p1023
I1024
ssVfloating_nodes
p1024
(lp1025
sa(dp1026
Vwindow_properties
p1027
(dp1028
Vinstance
p1029
Vxterm
p1030
sVclass
p1031
VXTerm
p1032
sVtitle
p1033
Vtknew@Transport
p1034
ssVfullscreen_mode
p1035
I0
sVorientation
p1036
Vnone
p1037
sg222
S'xterm'
p1038
sVfocus
p1039
(lp1040
sVurgent
p1041
I00
sVlast_split_layout
p1042
Vsplith
p1043
sVfloating
p1044
Vauto_off
p1045
sVborder
p1046
Vpixel
p1047
sVid
p1048
I26169248
sVcurrent_border_width
p1049
I-1
sVlayout
p1050
Vsplith
p1051
sVpercent
p1052
F0.5
sVworkspace_layout
p1053
Vdefault
p1054
sVwindow
p1055
I23068706
sVnodes
p1056
(lp1057
sVtype
p1058
Vcon
p1059
sVswallows
p1060
(lp1061
sVfocused
p1062
I01
sVscratchpad_state
p1063
Vnone
p1064
sVrect
p1065
(dp1066
g102
I19
sg103
I960
sVheight
p1067
I1061
sVwidth
p1068
I960
ssVwindow_rect
p1069
(dp1070
g102
I1
sg103
I1
sVheight
p1071
I1057
sVwidth
p1072
I957
ssVname
p1073
Vtknew@Transport
p1074
sVgeometry
p1075
(dp1076
g102
I0
sg103
I0
sVheight
p1077
I412
sVwidth
p1078
I644
ssVfloating_nodes
p1079
(lp1080
sasVtype
p1081
Vcon
p1082
sVswallows
p1083
(lp1084
sVfocused
p1085
I00
sVscratchpad_state
p1086
Vnone
p1087
sVrect
p1088
(dp1089
g102
I19
sg103
I0
sVheight
p1090
I1061
sVwidth
p1091
I1920
ssVwindow_rect
p1092
(dp1093
g102
I0
sg103
I0
sVheight
p1094
I0
sVwidth
p1095
I0
ssVname
p1096
V#0000FF
p1097
sVgeometry
p1098
(dp1099
g102
I0
sg103
I0
sVheight
p1100
I0
sVwidth
p1101
I0
ssVfloating_nodes
p1102
(lp1103
sasVtype
p1104
Vworkspace
p1105
sVswallows
p1106
(lp1107
sVfocused
p1108
I00
sVscratchpad_state
p1109
Vnone
p1110
sVrect
p1111
(dp1112
g102
I19
sg103
I0
sVheight
p1113
I1061
sVwidth
p1114
I1920
ssVwindow_rect
p1115
(dp1116
g102
I0
sg103
I0
sVheight
p1117
I0
sVwidth
p1118
I0
ssVname
p1119
V2
p1120
sVgeometry
p1121
(dp1122
g102
I0
sg103
I0
sVheight
p1123
I0
sVwidth
p1124
I0
ssVfloating_nodes
p1125
(lp1126
sa(dp1127
Vfullscreen_mode
p1128
I0
sVorientation
p1129
Vhorizontal
p1130
sVfocus
p1131
(lp1132
I26120640
asVurgent
p1133
I00
sVnum
p1134
I3
sVlast_split_layout
p1135
Vsplith
p1136
sVfloating
p1137
Vauto_off
p1138
sVborder
p1139
Vpixel
p1140
sVid
p1141
I26120272
sVcurrent_border_width
p1142
I-1
sVlayout
p1143
Vsplith
p1144
sVpercent
p1145
F0.5
sVworkspace_layout
p1146
Vdefault
p1147
sVwindow
p1148
NsVnodes
p1149
(lp1150
(dp1151
Vwindow_properties
p1152
(dp1153
Vinstance
p1154
VGoogle-chrome
p1155
sVwindow_role
p1156
Vbrowser
p1157
sVclass
p1158
VGoogle-chrome
p1159
sVtitle
p1160
VTests PM2 - Google Sheets - Google Chrome
p1161
ssVfullscreen_mode
p1162
I0
sVorientation
p1163
Vnone
p1164
sg222
S'google-chrome'
p1165
sVfocus
p1166
(lp1167
sVurgent
p1168
I00
sVlast_split_layout
p1169
Vsplith
p1170
sVfloating
p1171
Vauto_off
p1172
sVborder
p1173
Vpixel
p1174
sVid
p1175
I26120640
sVcurrent_border_width
p1176
I-1
sVlayout
p1177
Vsplith
p1178
sVpercent
p1179
F1.0
sVworkspace_layout
p1180
Vdefault
p1181
sVwindow
p1182
I18875100
sVnodes
p1183
(lp1184
sVtype
p1185
Vcon
p1186
sVswallows
p1187
(lp1188
sVfocused
p1189
I00
sVscratchpad_state
p1190
Vnone
p1191
sVrect
p1192
(dp1193
g102
I19
sg103
I0
sVheight
p1194
I1061
sVwidth
p1195
I1920
ssVwindow_rect
p1196
(dp1197
g102
I1
sg103
I0
sVheight
p1198
I1059
sVwidth
p1199
I1920
ssVname
p1200
VTests PM2 - Google Sheets - Google Chrome
p1201
sVgeometry
p1202
(dp1203
g102
I30
sg103
I10
sVheight
p1204
I1059
sVwidth
p1205
I1343
ssVfloating_nodes
p1206
(lp1207
sasVtype
p1208
Vworkspace
p1209
sVswallows
p1210
(lp1211
sVfocused
p1212
I00
sVscratchpad_state
p1213
Vnone
p1214
sVrect
p1215
(dp1216
g102
I19
sg103
I0
sVheight
p1217
I1061
sVwidth
p1218
I1920
ssVwindow_rect
p1219
(dp1220
g102
I0
sg103
I0
sVheight
p1221
I0
sVwidth
p1222
I0
ssVname
p1223
V3
p1224
sVgeometry
p1225
(dp1226
g102
I0
sg103
I0
sVheight
p1227
I0
sVwidth
p1228
I0
ssVfloating_nodes
p1229
(lp1230
sasVtype
p1231
Vcon
p1232
sVswallows
p1233
(lp1234
sVfocused
p1235
I00
sVscratchpad_state
p1236
Vnone
p1237
sVrect
p1238
(dp1239
g102
I19
sg103
I0
sVheight
p1240
I1061
sVwidth
p1241
I1920
ssVwindow_rect
p1242
(dp1243
g102
I0
sg103
I0
sVheight
p1244
I0
sVwidth
p1245
I0
ssVname
p1246
Vcontent
p1247
sVgeometry
p1248
(dp1249
g102
I0
sg103
I0
sVheight
p1250
I0
sVwidth
p1251
I0
ssVfloating_nodes
p1252
(lp1253
sa(dp1254
Vfullscreen_mode
p1255
I0
sVorientation
p1256
Vnone
p1257
sVfocus
p1258
(lp1259
sVurgent
p1260
I00
sVlast_split_layout
p1261
Vsplith
p1262
sVfloating
p1263
Vauto_off
p1264
sVborder
p1265
Vpixel
p1266
sVid
p1267
I26121664
sVcurrent_border_width
p1268
I-1
sVlayout
p1269
Vdockarea
p1270
sVpercent
p1271
F0.3333333333333333
sVworkspace_layout
p1272
Vdefault
p1273
sVwindow
p1274
NsVnodes
p1275
(lp1276
sVtype
p1277
Vdockarea
p1278
sVswallows
p1279
(lp1280
(dp1281
Vdock
p1282
I3
sVinsert_where
p1283
I2
sasVfocused
p1284
I00
sVscratchpad_state
p1285
Vnone
p1286
sVrect
p1287
(dp1288
g102
I1080
sg103
I0
sVheight
p1289
I0
sVwidth
p1290
I1920
ssVwindow_rect
p1291
(dp1292
g102
I0
sg103
I0
sVheight
p1293
I0
sVwidth
p1294
I0
ssVname
p1295
Vbottomdock
p1296
sVgeometry
p1297
(dp1298
g102
I0
sg103
I0
sVheight
p1299
I0
sVwidth
p1300
I0
ssVfloating_nodes
p1301
(lp1302
sasVtype
p1303
Voutput
p1304
sVswallows
p1305
(lp1306
sVfocused
p1307
I00
sVscratchpad_state
p1308
Vnone
p1309
sVrect
p1310
(dp1311
g102
I0
sg103
I0
sVheight
p1312
I1080
sVwidth
p1313
I1920
ssVwindow_rect
p1314
(dp1315
g102
I0
sg103
I0
sVheight
p1316
I0
sVwidth
p1317
I0
ssVname
p1318
VVGA1
p1319
sVgeometry
p1320
(dp1321
g102
I0
sg103
I0
sVheight
p1322
I0
sVwidth
p1323
I0
ssVfloating_nodes
p1324
(lp1325
sasVtype
p1326
Vroot
p1327
sVswallows
p1328
(lp1329
sVfocused
p1330
I00
sVscratchpad_state
p1331
Vnone
p1332
sVrect
p1333
(dp1334
g102
I0
sg103
I0
sVheight
p1335
I1080
sVwidth
p1336
I2944
ssVwindow_rect
p1337
(dp1338
g102
I0
sg103
I0
sVheight
p1339
I0
sVwidth
p1340
I0
ssVname
p1341
Vroot
p1342
sVgeometry
p1343
(dp1344
g102
I0
sg103
I0
sVheight
p1345
I0
sVwidth
p1346
I0
ssVfloating_nodes
p1347
(lp1348
s.